; Function Attrs: nounwind uwtable
define hidden ptr @cmsDictDup(ptr nocapture noundef readonly %0) local_unnamed_addr #0 {
  %2 = getelementptr inbounds i8, ptr %0, i64 8
  %3 = load ptr, ptr %2, align 8
  %4 = tail call ptr @_cmsMallocZero(ptr noundef %3, i32 noundef 16) #12
  %5 = icmp eq ptr %4, null
  br i1 %5, label %cmsDictAlloc.exit.thread, label %cmsDictAlloc.exit

cmsDictAlloc.exit:                                ; preds = %1
  %6 = getelementptr inbounds i8, ptr %4, i64 8
  store ptr %3, ptr %6, align 8
  br label %7

7:                                                ; preds = %cmsDictAlloc.exit, %8
  %.0.in = phi ptr [ %0, %cmsDictAlloc.exit ], [ %.0, %8 ]
  %.0 = load ptr, ptr %.0.in, align 8
  %.not = icmp eq ptr %.0, null
  br i1 %.not, label %cmsDictAlloc.exit.thread, label %8

8:                                                ; preds = %7
  %9 = getelementptr inbounds i8, ptr %.0, i64 24
  %10 = load ptr, ptr %9, align 8
  %11 = getelementptr inbounds i8, ptr %.0, i64 32
  %12 = load ptr, ptr %11, align 8
  %13 = getelementptr inbounds i8, ptr %.0, i64 8
  %14 = load ptr, ptr %13, align 8
  %15 = getelementptr inbounds i8, ptr %.0, i64 16
  %16 = load ptr, ptr %15, align 8
  %17 = tail call i32 @cmsDictAddEntry(ptr noundef nonnull %4, ptr noundef %10, ptr noundef %12, ptr noundef %14, ptr noundef %16)
  %.not16 = icmp eq i32 %17, 0
  br i1 %.not16, label %18, label %7, !llvm.loop !26

18:                                               ; preds = %8
  tail call void @cmsDictFree(ptr noundef nonnull %4)
  br label %cmsDictAlloc.exit.thread

cmsDictAlloc.exit.thread:                         ; preds = %7, %1, %18
  %.014 = phi ptr [ null, %18 ], [ null, %1 ], [ %4, %7 ]
  ret ptr %.014
}